target datalayout = "e-m:e-p270:32:32-p271:32:32-p272:64:64-i64:64-i128:128-f80:128-n8:16:32:64-S128"
target triple = "x86_64-pc-linux-gnu"

%struct.StreamType = type { i32, i32, i32 }
%struct.AVStream = type { ptr, i32, i32, ptr, ptr, %struct.AVRational, i64, i64, i64, i32, i32, %struct.AVRational, ptr, %struct.AVRational, %struct.AVPacket, i32, %struct.AVRational, i32 }
%struct.AVPacket = type { ptr, i64, i64, ptr, i32, i32, i32, ptr, i32, i64, i64, ptr, ptr, %struct.AVRational }
%struct.AVRational = type { i32, i32 }
%struct.AVCodecParameters = type { i32, i32, i32, ptr, i32, ptr, i32, i32, i64, i32, i32, i32, i32, i32, i32, %struct.AVRational, %struct.AVRational, i32, i32, i32, i32, i32, i32, i32, %struct.AVChannelLayout, i32, i32, i32, i32, i32, i32 }
%struct.AVChannelLayout = type { i32, i32, %union.anon, ptr }
%union.anon = type { i64 }
%struct.FFStream = type { %struct.AVStream, ptr, i32, ptr, i32, ptr, i32, %struct.anon, i32, i32, %struct.FFFrac, ptr, ptr, i32, i32, i64, i64, i32, i32, i32, i64, i64, i64, i32, i64, i64, i64, i32, i32, [17 x i64], [17 x i8], [17 x i64], i64, i8, i8, %struct.AVRational, %struct.AVProbeData, ptr, i64, i32, i32, i32, ptr, i32, i32, i64, i64, ptr, %struct.AVRational }
%struct.anon = type { ptr, i32 }
%struct.FFFrac = type { i64, i64, i64 }
%struct.AVProbeData = type { ptr, ptr, i32, ptr }

; Function Attrs: alwaysinline nounwind uwtable
define internal ptr @ffstream(ptr noundef %0) #2 {
  %2 = alloca ptr, align 8
  store ptr %0, ptr %2, align 8, !tbaa !9
  %3 = load ptr, ptr %2, align 8, !tbaa !9
  ret ptr %3
}

; Function Attrs: nounwind uwtable
define internal void @mpegts_find_stream_type(ptr noundef %0, i32 noundef %1, ptr noundef %2) #0 {
  %4 = alloca ptr, align 8
  %5 = alloca i32, align 4
  %6 = alloca ptr, align 8
  %7 = alloca ptr, align 8
  %8 = alloca i32, align 4
  store ptr %0, ptr %4, align 8, !tbaa !9
  store i32 %1, ptr %5, align 4, !tbaa !11
  store ptr %2, ptr %6, align 8, !tbaa !91
  call void @llvm.lifetime.start.p0(i64 8, ptr %7) #12
  %9 = load ptr, ptr %4, align 8, !tbaa !9
  %10 = call ptr @ffstream(ptr noundef %9)
  store ptr %10, ptr %7, align 8, !tbaa !22
  br label %11

11:                                               ; preds = %63, %3
  %12 = load ptr, ptr %6, align 8, !tbaa !91
  %13 = getelementptr inbounds nuw %struct.StreamType, ptr %12, i32 0, i32 0
  %14 = load i32, ptr %13, align 4, !tbaa !93
  %15 = icmp ne i32 %14, 0
  br i1 %15, label %16, label %66

16:                                               ; preds = %11
  %17 = load i32, ptr %5, align 4, !tbaa !11
  %18 = load ptr, ptr %6, align 8, !tbaa !91
  %19 = getelementptr inbounds nuw %struct.StreamType, ptr %18, i32 0, i32 0
  %20 = load i32, ptr %19, align 4, !tbaa !93
  %21 = icmp eq i32 %17, %20
  br i1 %21, label %22, label %62

22:                                               ; preds = %16
  %23 = load ptr, ptr %4, align 8, !tbaa !9
  %24 = getelementptr inbounds nuw %struct.AVStream, ptr %23, i32 0, i32 3
  %25 = load ptr, ptr %24, align 8, !tbaa !24
  %26 = getelementptr inbounds nuw %struct.AVCodecParameters, ptr %25, i32 0, i32 0
  %27 = load i32, ptr %26, align 8, !tbaa !64
  %28 = load ptr, ptr %6, align 8, !tbaa !91
  %29 = getelementptr inbounds nuw %struct.StreamType, ptr %28, i32 0, i32 1
  %30 = load i32, ptr %29, align 4, !tbaa !95
  %31 = icmp ne i32 %27, %30
  br i1 %31, label %42, label %32

32:                                               ; preds = %22
  %33 = load ptr, ptr %4, align 8, !tbaa !9
  %34 = getelementptr inbounds nuw %struct.AVStream, ptr %33, i32 0, i32 3
  %35 = load ptr, ptr %34, align 8, !tbaa !24
  %36 = getelementptr inbounds nuw %struct.AVCodecParameters, ptr %35, i32 0, i32 1
  %37 = load i32, ptr %36, align 4, !tbaa !34
  %38 = load ptr, ptr %6, align 8, !tbaa !91
  %39 = getelementptr inbounds nuw %struct.StreamType, ptr %38, i32 0, i32 2
  %40 = load i32, ptr %39, align 4, !tbaa !96
  %41 = icmp ne i32 %37, %40
  br i1 %41, label %42, label %59

42:                                               ; preds = %32, %22
  %43 = load ptr, ptr %6, align 8, !tbaa !91
  %44 = getelementptr inbounds nuw %struct.StreamType, ptr %43, i32 0, i32 1
  %45 = load i32, ptr %44, align 4, !tbaa !95
  %46 = load ptr, ptr %4, align 8, !tbaa !9
  %47 = getelementptr inbounds nuw %struct.AVStream, ptr %46, i32 0, i32 3
  %48 = load ptr, ptr %47, align 8, !tbaa !24
  %49 = getelementptr inbounds nuw %struct.AVCodecParameters, ptr %48, i32 0, i32 0
  store i32 %45, ptr %49, align 8, !tbaa !64
  %50 = load ptr, ptr %6, align 8, !tbaa !91
  %51 = getelementptr inbounds nuw %struct.StreamType, ptr %50, i32 0, i32 2
  %52 = load i32, ptr %51, align 4, !tbaa !96
  %53 = load ptr, ptr %4, align 8, !tbaa !9
  %54 = getelementptr inbounds nuw %struct.AVStream, ptr %53, i32 0, i32 3
  %55 = load ptr, ptr %54, align 8, !tbaa !24
  %56 = getelementptr inbounds nuw %struct.AVCodecParameters, ptr %55, i32 0, i32 1
  store i32 %52, ptr %56, align 4, !tbaa !34
  %57 = load ptr, ptr %7, align 8, !tbaa !22
  %58 = getelementptr inbounds nuw %struct.FFStream, ptr %57, i32 0, i32 8
  store i32 1, ptr %58, align 8, !tbaa !61
  br label %59

59:                                               ; preds = %42, %32
  %60 = load ptr, ptr %7, align 8, !tbaa !22
  %61 = getelementptr inbounds nuw %struct.FFStream, ptr %60, i32 0, i32 17
  store i32 0, ptr %61, align 8, !tbaa !37
  store i32 1, ptr %8, align 4
  br label %67

62:                                               ; preds = %16
  br label %63

63:                                               ; preds = %62
  %64 = load ptr, ptr %6, align 8, !tbaa !91
  %65 = getelementptr inbounds nuw %struct.StreamType, ptr %64, i32 1
  store ptr %65, ptr %6, align 8, !tbaa !91
  br label %11, !llvm.loop !97

66:                                               ; preds = %11
  store i32 0, ptr %8, align 4
  br label %67

67:                                               ; preds = %66, %59
  call void @llvm.lifetime.end.p0(i64 8, ptr %7) #12
  %68 = load i32, ptr %8, align 4
  switch i32 %68, label %70 [
    i32 0, label %69
    i32 1, label %69
  ]

69:                                               ; preds = %67, %67
  ret void

70:                                               ; preds = %67
  unreachable
}