; Function Attrs: nofree norecurse nosync nounwind memory(readwrite, inaccessiblemem: none) uwtable
define internal fastcc void @mpegts_find_stream_type(ptr noundef captures(none) %0, i32 noundef %1, ptr noundef readonly captures(none) %2) unnamed_addr #3 {
  %4 = load i32, ptr %2, align 4, !tbaa !42
  %.not18 = icmp eq i32 %4, 0
  br i1 %.not18, label %.loopexit, label %.lr.ph

.lr.ph:                                           ; preds = %3, %24
  %5 = phi i32 [ %26, %24 ], [ %4, %3 ]
  %.019 = phi ptr [ %25, %24 ], [ %2, %3 ]
  %6 = icmp eq i32 %1, %5
  br i1 %6, label %7, label %24

7:                                                ; preds = %.lr.ph
  %8 = getelementptr inbounds nuw i8, ptr %0, i64 16
  %9 = load ptr, ptr %8, align 8, !tbaa !10
  %10 = load i32, ptr %9, align 8, !tbaa !37
  %11 = getelementptr inbounds nuw i8, ptr %.019, i64 4
  %12 = load i32, ptr %11, align 4, !tbaa !38
  %.not15 = icmp eq i32 %10, %12
  br i1 %.not15, label %13, label %._crit_edge

._crit_edge:                                      ; preds = %7
  %.phi.trans.insert = getelementptr inbounds nuw i8, ptr %.019, i64 8
  %.pre = load i32, ptr %.phi.trans.insert, align 4, !tbaa !40
  br label %18

13:                                               ; preds = %7
  %14 = getelementptr inbounds nuw i8, ptr %9, i64 4
  %15 = load i32, ptr %14, align 4, !tbaa !21
  %16 = getelementptr inbounds nuw i8, ptr %.019, i64 8
  %17 = load i32, ptr %16, align 4, !tbaa !40
  %.not16 = icmp eq i32 %15, %17
  br i1 %.not16, label %22, label %18

18:                                               ; preds = %._crit_edge, %13
  %19 = phi i32 [ %.pre, %._crit_edge ], [ %17, %13 ]
  store i32 %12, ptr %9, align 8, !tbaa !37
  %20 = getelementptr inbounds nuw i8, ptr %9, i64 4
  store i32 %19, ptr %20, align 4, !tbaa !21
  %21 = getelementptr inbounds nuw i8, ptr %0, i64 280
  store i32 1, ptr %21, align 8, !tbaa !41
  br label %22

22:                                               ; preds = %18, %13
  %23 = getelementptr inbounds nuw i8, ptr %0, i64 352
  store i32 0, ptr %23, align 8, !tbaa !24
  br label %.loopexit

24:                                               ; preds = %.lr.ph
  %25 = getelementptr inbounds nuw i8, ptr %.019, i64 12
  %26 = load i32, ptr %25, align 4, !tbaa !42
  %.not = icmp eq i32 %26, 0
  br i1 %.not, label %.loopexit, label %.lr.ph, !llvm.loop !43

.loopexit:                                        ; preds = %24, %3, %22
  ret void
}